; ModuleID = 'source-C-CXX/9/1268.cpp'
source_filename = "source-C-CXX/9/1268.cpp"
target datalayout = "e-m:e-p270:32:32-p271:32:32-p272:64:64-i64:64-f80:128-n8:16:32:64-S128"
target triple = "x86_64-pc-linux-gnu"

%"class.std::ios_base::Init" = type { i8 }
%"class.std::basic_istream" = type { i32 (...)**, i64, %"class.std::basic_ios" }
%"class.std::basic_ios" = type { %"class.std::ios_base", %"class.std::basic_ostream"*, i8, i8, %"class.std::basic_streambuf"*, %"class.std::ctype"*, %"class.std::num_put"*, %"class.std::num_get"* }
%"class.std::ios_base" = type { i32 (...)**, i64, i64, i32, i32, i32, %"struct.std::ios_base::_Callback_list"*, %"struct.std::ios_base::_Words", [8 x %"struct.std::ios_base::_Words"], i32, %"struct.std::ios_base::_Words"*, %"class.std::locale" }
%"struct.std::ios_base::_Callback_list" = type { %"struct.std::ios_base::_Callback_list"*, void (i32, %"class.std::ios_base"*, i32)*, i32, i32 }
%"struct.std::ios_base::_Words" = type { i8*, i64 }
%"class.std::locale" = type { %"class.std::locale::_Impl"* }
%"class.std::locale::_Impl" = type { i32, %"class.std::locale::facet"**, i64, %"class.std::locale::facet"**, i8** }
%"class.std::locale::facet" = type <{ i32 (...)**, i32, [4 x i8] }>
%"class.std::basic_ostream" = type { i32 (...)**, %"class.std::basic_ios" }
%"class.std::basic_streambuf" = type { i32 (...)**, i8*, i8*, i8*, i8*, i8*, i8*, %"class.std::locale" }
%"class.std::ctype" = type <{ %"class.std::locale::facet.base", [4 x i8], %struct.__locale_struct*, i8, [7 x i8], i32*, i32*, i16*, i8, [256 x i8], [256 x i8], i8, [6 x i8] }>
%"class.std::locale::facet.base" = type <{ i32 (...)**, i32 }>
%struct.__locale_struct = type { [13 x %struct.__locale_data*], i16*, i32*, i32*, [13 x i8*] }
%struct.__locale_data = type opaque
%"class.std::num_put" = type { %"class.std::locale::facet.base", [4 x i8] }
%"class.std::num_get" = type { %"class.std::locale::facet.base", [4 x i8] }

@_ZStL8__ioinit = internal global %"class.std::ios_base::Init" zeroinitializer, align 1
@__dso_handle = external hidden global i8
@_ZSt3cin = external global %"class.std::basic_istream", align 8
@_ZSt4cout = external global %"class.std::basic_ostream", align 8
@llvm.global_ctors = appending global [1 x { i32, void ()*, i8* }] [{ i32, void ()*, i8* } { i32 65535, void ()* @_GLOBAL__sub_I_1268.cpp, i8* null }]

declare void @_ZNSt8ios_base4InitC1Ev(%"class.std::ios_base::Init"* nonnull align 1 dereferenceable(1)) unnamed_addr #0

; Function Attrs: nounwind
declare void @_ZNSt8ios_base4InitD1Ev(%"class.std::ios_base::Init"* nonnull align 1 dereferenceable(1)) unnamed_addr #1

; Function Attrs: nofree nounwind
declare i32 @__cxa_atexit(void (i8*)*, i8*, i8*) local_unnamed_addr #2

; Function Attrs: mustprogress norecurse sspstrong uwtable
define dso_local i32 @main() local_unnamed_addr #3 {
  %1 = alloca i32, align 4
  %2 = alloca [100 x i32], align 16
  %3 = alloca [100 x i32], align 16
  %4 = bitcast i32* %1 to i8*
  call void @llvm.lifetime.start.p0i8(i64 4, i8* nonnull %4) #8
  %5 = bitcast [100 x i32]* %2 to i8*
  call void @llvm.lifetime.start.p0i8(i64 400, i8* nonnull %5) #8
  %6 = bitcast [100 x i32]* %3 to i8*
  call void @llvm.lifetime.start.p0i8(i64 400, i8* nonnull %6) #8
  %7 = call nonnull align 8 dereferenceable(16) %"class.std::basic_istream"* @_ZNSirsERi(%"class.std::basic_istream"* nonnull align 8 dereferenceable(16) @_ZSt3cin, i32* nonnull align 4 dereferenceable(4) %1)
  %8 = load i32, i32* %1, align 4, !tbaa !5
  %9 = icmp sgt i32 %8, 0
  br i1 %9, label %16, label %30

10:                                               ; preds = %16
  %11 = icmp sgt i32 %22, 1
  br i1 %11, label %12, label %28

12:                                               ; preds = %10
  %13 = add nsw i32 %22, -2
  %14 = zext i32 %13 to i64
  %15 = zext i32 %22 to i64
  br label %113

16:                                               ; preds = %0, %16
  %17 = phi i64 [ %21, %16 ], [ 0, %0 ]
  %18 = getelementptr inbounds [100 x i32], [100 x i32]* %2, i64 0, i64 %17
  %19 = call nonnull align 8 dereferenceable(16) %"class.std::basic_istream"* @_ZNSirsERi(%"class.std::basic_istream"* nonnull align 8 dereferenceable(16) @_ZSt3cin, i32* nonnull align 4 dereferenceable(4) %18)
  %20 = getelementptr inbounds [100 x i32], [100 x i32]* %3, i64 0, i64 %17
  store i32 1, i32* %20, align 4, !tbaa !5
  %21 = add nuw nsw i64 %17, 1
  %22 = load i32, i32* %1, align 4, !tbaa !5
  %23 = sext i32 %22 to i64
  %24 = icmp slt i64 %21, %23
  br i1 %24, label %16, label %10, !llvm.loop !9

25:                                               ; preds = %132
  %26 = icmp sgt i64 %114, 2
  %27 = add nsw i64 %115, -1
  br i1 %26, label %113, label %28, !llvm.loop !11

28:                                               ; preds = %25, %10
  %29 = icmp sgt i32 %22, 0
  br i1 %29, label %33, label %30

30:                                               ; preds = %0, %28
  %31 = getelementptr inbounds [100 x i32], [100 x i32]* %3, i64 0, i64 0
  %32 = load i32, i32* %31, align 16, !tbaa !5
  br label %136

33:                                               ; preds = %28
  %34 = getelementptr inbounds [100 x i32], [100 x i32]* %3, i64 0, i64 0
  %35 = zext i32 %22 to i64
  %36 = load i32, i32* %34, align 16, !tbaa !5
  %37 = icmp eq i32 %22, 1
  br i1 %37, label %136, label %38, !llvm.loop !12

38:                                               ; preds = %33
  %39 = add nsw i64 %35, -1
  %40 = icmp ult i64 %39, 8
  br i1 %40, label %110, label %41

41:                                               ; preds = %38
  %42 = and i64 %39, -8
  %43 = or i64 %42, 1
  %44 = insertelement <4 x i32> poison, i32 %36, i32 0
  %45 = shufflevector <4 x i32> %44, <4 x i32> poison, <4 x i32> zeroinitializer
  %46 = add nsw i64 %42, -8
  %47 = lshr exact i64 %46, 3
  %48 = add nuw nsw i64 %47, 1
  %49 = and i64 %48, 1
  %50 = icmp eq i64 %46, 0
  br i1 %50, label %85, label %51

51:                                               ; preds = %41
  %52 = and i64 %48, 4611686018427387902
  br label %53

53:                                               ; preds = %53, %51
  %54 = phi i64 [ 0, %51 ], [ %80, %53 ]
  %55 = phi <4 x i32> [ %45, %51 ], [ %78, %53 ]
  %56 = phi <4 x i32> [ %45, %51 ], [ %79, %53 ]
  %57 = phi i64 [ %52, %51 ], [ %81, %53 ]
  %58 = or i64 %54, 1
  %59 = getelementptr inbounds [100 x i32], [100 x i32]* %3, i64 0, i64 %58
  %60 = bitcast i32* %59 to <4 x i32>*
  %61 = load <4 x i32>, <4 x i32>* %60, align 4, !tbaa !5
  %62 = getelementptr inbounds i32, i32* %59, i64 4
  %63 = bitcast i32* %62 to <4 x i32>*
  %64 = load <4 x i32>, <4 x i32>* %63, align 4, !tbaa !5
  %65 = icmp slt <4 x i32> %55, %61
  %66 = icmp slt <4 x i32> %56, %64
  %67 = select <4 x i1> %65, <4 x i32> %61, <4 x i32> %55
  %68 = select <4 x i1> %66, <4 x i32> %64, <4 x i32> %56
  %69 = or i64 %54, 9
  %70 = getelementptr inbounds [100 x i32], [100 x i32]* %3, i64 0, i64 %69
  %71 = bitcast i32* %70 to <4 x i32>*
  %72 = load <4 x i32>, <4 x i32>* %71, align 4, !tbaa !5
  %73 = getelementptr inbounds i32, i32* %70, i64 4
  %74 = bitcast i32* %73 to <4 x i32>*
  %75 = load <4 x i32>, <4 x i32>* %74, align 4, !tbaa !5
  %76 = icmp slt <4 x i32> %67, %72
  %77 = icmp slt <4 x i32> %68, %75
  %78 = select <4 x i1> %76, <4 x i32> %72, <4 x i32> %67
  %79 = select <4 x i1> %77, <4 x i32> %75, <4 x i32> %68
  %80 = add nuw i64 %54, 16
  %81 = add i64 %57, -2
  %82 = icmp eq i64 %81, 0
  br i1 %82, label %83, label %53, !llvm.loop !13

83:                                               ; preds = %53
  %84 = or i64 %80, 1
  br label %85

85:                                               ; preds = %83, %41
  %86 = phi <4 x i32> [ undef, %41 ], [ %78, %83 ]
  %87 = phi <4 x i32> [ undef, %41 ], [ %79, %83 ]
  %88 = phi i64 [ 1, %41 ], [ %84, %83 ]
  %89 = phi <4 x i32> [ %45, %41 ], [ %78, %83 ]
  %90 = phi <4 x i32> [ %45, %41 ], [ %79, %83 ]
  %91 = icmp eq i64 %49, 0
  br i1 %91, label %103, label %92

92:                                               ; preds = %85
  %93 = getelementptr inbounds [100 x i32], [100 x i32]* %3, i64 0, i64 %88
  %94 = bitcast i32* %93 to <4 x i32>*
  %95 = load <4 x i32>, <4 x i32>* %94, align 4, !tbaa !5
  %96 = getelementptr inbounds i32, i32* %93, i64 4
  %97 = bitcast i32* %96 to <4 x i32>*
  %98 = load <4 x i32>, <4 x i32>* %97, align 4, !tbaa !5
  %99 = icmp slt <4 x i32> %90, %98
  %100 = select <4 x i1> %99, <4 x i32> %98, <4 x i32> %90
  %101 = icmp slt <4 x i32> %89, %95
  %102 = select <4 x i1> %101, <4 x i32> %95, <4 x i32> %89
  br label %103

103:                                              ; preds = %85, %92
  %104 = phi <4 x i32> [ %86, %85 ], [ %102, %92 ]
  %105 = phi <4 x i32> [ %87, %85 ], [ %100, %92 ]
  %106 = icmp sgt <4 x i32> %104, %105
  %107 = select <4 x i1> %106, <4 x i32> %104, <4 x i32> %105
  %108 = call i32 @llvm.vector.reduce.smax.v4i32(<4 x i32> %107)
  %109 = icmp eq i64 %39, %42
  br i1 %109, label %136, label %110

110:                                              ; preds = %38, %103
  %111 = phi i64 [ 1, %38 ], [ %43, %103 ]
  %112 = phi i32 [ %36, %38 ], [ %108, %103 ]
  br label %168

113:                                              ; preds = %25, %12
  %114 = phi i64 [ %15, %12 ], [ %116, %25 ]
  %115 = phi i64 [ %14, %12 ], [ %27, %25 ]
  %116 = add nsw i64 %114, -1
  %117 = getelementptr inbounds [100 x i32], [100 x i32]* %3, i64 0, i64 %116
  %118 = getelementptr inbounds [100 x i32], [100 x i32]* %2, i64 0, i64 %116
  %119 = load i32, i32* %118, align 4, !tbaa !5
  br label %120

120:                                              ; preds = %113, %132
  %121 = phi i64 [ %115, %113 ], [ %135, %132 ]
  %122 = getelementptr inbounds [100 x i32], [100 x i32]* %2, i64 0, i64 %121
  %123 = load i32, i32* %122, align 4, !tbaa !5
  %124 = icmp slt i32 %123, %119
  br i1 %124, label %132, label %125

125:                                              ; preds = %120
  %126 = getelementptr inbounds [100 x i32], [100 x i32]* %3, i64 0, i64 %121
  %127 = load i32, i32* %126, align 4, !tbaa !5
  %128 = load i32, i32* %117, align 4, !tbaa !5
  %129 = icmp sgt i32 %127, %128
  br i1 %129, label %132, label %130

130:                                              ; preds = %125
  %131 = add nsw i32 %128, 1
  store i32 %131, i32* %126, align 4, !tbaa !5
  br label %132

132:                                              ; preds = %120, %125, %130
  %133 = trunc i64 %121 to i32
  %134 = icmp sgt i32 %133, 0
  %135 = add nsw i64 %121, -1
  br i1 %134, label %120, label %25, !llvm.loop !15

136:                                              ; preds = %168, %33, %103, %30
  %137 = phi i32 [ %32, %30 ], [ %36, %33 ], [ %108, %103 ], [ %174, %168 ]
  %138 = call nonnull align 8 dereferenceable(8) %"class.std::basic_ostream"* @_ZNSolsEi(%"class.std::basic_ostream"* nonnull align 8 dereferenceable(8) @_ZSt4cout, i32 %137)
  %139 = bitcast %"class.std::basic_ostream"* %138 to i8**
  %140 = load i8*, i8** %139, align 8, !tbaa !16
  %141 = getelementptr i8, i8* %140, i64 -24
  %142 = bitcast i8* %141 to i64*
  %143 = load i64, i64* %142, align 8
  %144 = bitcast %"class.std::basic_ostream"* %138 to i8*
  %145 = add nsw i64 %143, 240
  %146 = getelementptr inbounds i8, i8* %144, i64 %145
  %147 = bitcast i8* %146 to %"class.std::ctype"**
  %148 = load %"class.std::ctype"*, %"class.std::ctype"** %147, align 8, !tbaa !18
  %149 = icmp eq %"class.std::ctype"* %148, null
  br i1 %149, label %150, label %151

150:                                              ; preds = %136
  call void @_ZSt16__throw_bad_castv() #9
  unreachable

151:                                              ; preds = %136
  %152 = getelementptr inbounds %"class.std::ctype", %"class.std::ctype"* %148, i64 0, i32 8
  %153 = load i8, i8* %152, align 8, !tbaa !22
  %154 = icmp eq i8 %153, 0
  br i1 %154, label %158, label %155

155:                                              ; preds = %151
  %156 = getelementptr inbounds %"class.std::ctype", %"class.std::ctype"* %148, i64 0, i32 9, i64 10
  %157 = load i8, i8* %156, align 1, !tbaa !24
  br label %164

158:                                              ; preds = %151
  call void @_ZNKSt5ctypeIcE13_M_widen_initEv(%"class.std::ctype"* nonnull align 8 dereferenceable(570) %148)
  %159 = bitcast %"class.std::ctype"* %148 to i8 (%"class.std::ctype"*, i8)***
  %160 = load i8 (%"class.std::ctype"*, i8)**, i8 (%"class.std::ctype"*, i8)*** %159, align 8, !tbaa !16
  %161 = getelementptr inbounds i8 (%"class.std::ctype"*, i8)*, i8 (%"class.std::ctype"*, i8)** %160, i64 6
  %162 = load i8 (%"class.std::ctype"*, i8)*, i8 (%"class.std::ctype"*, i8)** %161, align 8
  %163 = call signext i8 %162(%"class.std::ctype"* nonnull align 8 dereferenceable(570) %148, i8 signext 10)
  br label %164

164:                                              ; preds = %155, %158
  %165 = phi i8 [ %157, %155 ], [ %163, %158 ]
  %166 = call nonnull align 8 dereferenceable(8) %"class.std::basic_ostream"* @_ZNSo3putEc(%"class.std::basic_ostream"* nonnull align 8 dereferenceable(8) %138, i8 signext %165)
  %167 = call nonnull align 8 dereferenceable(8) %"class.std::basic_ostream"* @_ZNSo5flushEv(%"class.std::basic_ostream"* nonnull align 8 dereferenceable(8) %166)
  call void @llvm.lifetime.end.p0i8(i64 400, i8* nonnull %6) #8
  call void @llvm.lifetime.end.p0i8(i64 400, i8* nonnull %5) #8
  call void @llvm.lifetime.end.p0i8(i64 4, i8* nonnull %4) #8
  ret i32 0

168:                                              ; preds = %110, %168
  %169 = phi i64 [ %175, %168 ], [ %111, %110 ]
  %170 = phi i32 [ %174, %168 ], [ %112, %110 ]
  %171 = getelementptr inbounds [100 x i32], [100 x i32]* %3, i64 0, i64 %169
  %172 = load i32, i32* %171, align 4, !tbaa !5
  %173 = icmp slt i32 %170, %172
  %174 = select i1 %173, i32 %172, i32 %170
  %175 = add nuw nsw i64 %169, 1
  %176 = icmp eq i64 %175, %35
  br i1 %176, label %136, label %168, !llvm.loop !25
}

; Function Attrs: argmemonly mustprogress nofree nosync nounwind willreturn
declare void @llvm.lifetime.start.p0i8(i64 immarg, i8* nocapture) #4

declare nonnull align 8 dereferenceable(16) %"class.std::basic_istream"* @_ZNSirsERi(%"class.std::basic_istream"* nonnull align 8 dereferenceable(16), i32* nonnull align 4 dereferenceable(4)) local_unnamed_addr #0

; Function Attrs: argmemonly mustprogress nofree nosync nounwind willreturn
declare void @llvm.lifetime.end.p0i8(i64 immarg, i8* nocapture) #4

declare nonnull align 8 dereferenceable(8) %"class.std::basic_ostream"* @_ZNSolsEi(%"class.std::basic_ostream"* nonnull align 8 dereferenceable(8), i32) local_unnamed_addr #0

declare nonnull align 8 dereferenceable(8) %"class.std::basic_ostream"* @_ZNSo3putEc(%"class.std::basic_ostream"* nonnull align 8 dereferenceable(8), i8 signext) local_unnamed_addr #0

declare nonnull align 8 dereferenceable(8) %"class.std::basic_ostream"* @_ZNSo5flushEv(%"class.std::basic_ostream"* nonnull align 8 dereferenceable(8)) local_unnamed_addr #0

; Function Attrs: noreturn
declare void @_ZSt16__throw_bad_castv() local_unnamed_addr #5

declare void @_ZNKSt5ctypeIcE13_M_widen_initEv(%"class.std::ctype"* nonnull align 8 dereferenceable(570)) local_unnamed_addr #0

; Function Attrs: sspstrong uwtable
define internal void @_GLOBAL__sub_I_1268.cpp() #6 section ".text.startup" {
  tail call void @_ZNSt8ios_base4InitC1Ev(%"class.std::ios_base::Init"* nonnull align 1 dereferenceable(1) @_ZStL8__ioinit)
  %1 = tail call i32 @__cxa_atexit(void (i8*)* bitcast (void (%"class.std::ios_base::Init"*)* @_ZNSt8ios_base4InitD1Ev to void (i8*)*), i8* getelementptr inbounds (%"class.std::ios_base::Init", %"class.std::ios_base::Init"* @_ZStL8__ioinit, i64 0, i32 0), i8* nonnull @__dso_handle) #8
  ret void
}

; Function Attrs: nofree nosync nounwind readnone willreturn
declare i32 @llvm.vector.reduce.smax.v4i32(<4 x i32>) #7


!llvm.module.flags = !{!0, !1, !2, !3}
!llvm.ident = !{!4}

!0 = !{i32 1, !"wchar_size", i32 4}
!1 = !{i32 7, !"PIC Level", i32 2}
!2 = !{i32 7, !"PIE Level", i32 2}
!3 = !{i32 7, !"uwtable", i32 1}
!4 = !{!"clang version 13.0.0"}
!5 = !{!6, !6, i64 0}
!6 = !{!"int", !7, i64 0}
!7 = !{!"omnipotent char", !8, i64 0}
!8 = !{!"Simple C++ TBAA"}
!9 = distinct !{!9, !10}
!10 = !{!"llvm.loop.mustprogress"}
!11 = distinct !{!11, !10}
!12 = distinct !{!12, !10}
!13 = distinct !{!13, !10, !14}
!14 = !{!"llvm.loop.isvectorized", i32 1}
!15 = distinct !{!15, !10}
!16 = !{!17, !17, i64 0}
!17 = !{!"vtable pointer", !8, i64 0}
!18 = !{!19, !20, i64 240}
!19 = !{!"_ZTSSt9basic_iosIcSt11char_traitsIcEE", !20, i64 216, !7, i64 224, !21, i64 225, !20, i64 232, !20, i64 240, !20, i64 248, !20, i64 256}
!20 = !{!"any pointer", !7, i64 0}
!21 = !{!"bool", !7, i64 0}
!22 = !{!23, !7, i64 56}
!23 = !{!"_ZTSSt5ctypeIcE", !20, i64 16, !21, i64 24, !20, i64 32, !20, i64 40, !20, i64 48, !7, i64 56, !7, i64 57, !7, i64 313, !7, i64 569}
!24 = !{!7, !7, i64 0}
!25 = distinct !{!25, !10, !26, !14}
!26 = !{!"llvm.loop.unroll.runtime.disable"}
